(lp0
(lp1
I1
aI2
aI3
aI4
aI5
aI6
aI7
aI8
aI9
aI10
aI11
aI12
aI13
aI14
aI15
aI16
aI17
aI18
aI19
aI20
aI21
aI22
aI23
aI24
aI25
aI26
aI27
aI28
aI29
aI30
aI31
aI32
aI33
aI34
aI35
aI36
aI37
aI38
aI39
aI40
aI41
aI42
aI43
aI44
aI45
aI46
aI47
aI48
aI49
aa(lp2
F100.0
aF100.0
aF100.0
aF100.0
aF100.0
aF100.0
aF100.0
aF100.0
aF100.0
aF100.0
aF100.0
aF100.0
aF100.0
aF100.0
aF100.0
aF100.0
aF100.0
aF100.0
aF100.0
aF100.0
aF100.0
aF100.0
aF100.0
aF100.0
aF100.0
aF100.0
aF100.0
aF100.0
aF100.0
aF100.0
aF100.0
aF100.0
aF100.0
aF100.0
aF100.0
aF100.0
aF100.0
aF100.0
aF100.0
aF100.0
aF100.0
aF100.0
aF100.0
aF100.0
aF100.0
aF100.0
aF100.0
aF100.0
aF100.0
aa(lp3
F70.0
aF70.0
aF70.0
aF70.0
aF70.0
aF71.0
aF70.0
aF70.0
aF70.0
aF70.0
aF70.0
aF70.0
aF70.0
aF71.0
aF71.0
aF71.0
aF71.0
aF71.0
aF71.0
aF72.0
aF70.0
aF71.0
aF71.0
aF70.0
aF71.0
aF71.0
aF71.0
aF72.0
aF70.0
aF72.0
aF70.0
aF71.0
aF71.0
aF71.0
aF71.0
aF70.0
aF71.0
aF71.0
aF71.0
aF71.0
aF72.0
aF71.0
aF71.0
aF70.0
aF71.0
aF72.0
aF71.0
aF71.0
aF70.0
aa(lp4
F0.0
aF160.28821052693797
aF156.23288869857788
aF159.31004762649536
aF162.38719582557678
aF160.1187733438786
aF168.6832842680133
aF171.5170682668686
aF174.5943487882614
aF177.67179381847382
aF180.74897062778473
aF183.82608306407928
aF186.9032598733902
aF184.636075364266
aF187.8547396659851
aF190.831010222435
aF193.80718052387238
aF195.0
aF195.0
aF189.75625451832084
aF200.48768595022105
aF194.7562046477023
aF195.0
aF200.24381434249887
aF194.7561808386213
aF195.0
aF195.0
aF189.75621881756678
aF200.48776194662685
aF189.51252320112133
aF200.48740089129564
aF194.75634966923118
aF195.0
aF195.0
aF195.0
aF200.2430277416282
aF194.75697620115395
aF195.0
aF195.0
aF195.0
aF189.75705277839884
aF195.24295200626509
aF195.0
aF200.24315031327828
aF194.75697338489405
aF189.7569795805797
aF195.2429154224476
aF195.0
aF200.24301000011587
aa(lp5
F1500.0
aF1660.288210526938
aF1656.2328886985779
aF1659.3100476264954
aF1662.3871958255768
aF1660.1187733438785
aF1668.6832842680133
aF1671.5170682668686
aF1674.5943487882614
aF1677.6717938184738
aF1680.7489706277847
aF1683.8260830640793
aF1686.9032598733902
aF1684.636075364266
aF1687.854739665985
aF1690.831010222435
aF1693.8071805238724
aF1695.0
aF1695.0
aF1689.756254518321
aF1700.487685950221
aF1694.7562046477024
aF1695.0
aF1700.2438143424988
aF1694.7561808386213
aF1695.0
aF1695.0
aF1689.7562188175668
aF1700.487761946627
aF1689.5125232011214
aF1700.4874008912957
aF1694.7563496692312
aF1695.0
aF1695.0
aF1695.0
aF1700.243027741628
aF1694.756976201154
aF1695.0
aF1695.0
aF1695.0
aF1689.757052778399
aF1695.242952006265
aF1695.0
aF1700.2431503132782
aF1694.756973384894
aF1689.7569795805798
aF1695.2429154224476
aF1695.0
aF1700.2430100001159
aa.