(lp0
(lp1
I1
aI2
aI3
aI4
aI5
aI6
aI7
aI8
aI9
aI10
aI11
aI12
aI13
aI14
aI15
aI16
aI17
aI18
aI19
aI20
aI21
aI22
aI23
aI24
aI25
aI26
aI27
aI28
aI29
aI30
aI31
aI32
aI33
aI34
aI35
aI36
aI37
aI38
aI39
aI40
aI41
aI42
aI43
aI44
aI45
aI46
aI47
aI48
aI49
aa(lp2
F70.0
aF70.0
aF70.0
aF70.0
aF70.0
aF70.0
aF70.0
aF70.0
aF70.0
aF70.0
aF70.0
aF70.0
aF70.0
aF70.0
aF70.0
aF70.0
aF70.0
aF70.0
aF70.0
aF70.0
aF70.0
aF70.0
aF70.0
aF70.0
aF70.0
aF70.0
aF70.0
aF70.0
aF70.0
aF70.0
aF70.0
aF70.0
aF70.0
aF70.0
aF70.0
aF70.0
aF70.0
aF70.0
aF70.0
aF70.0
aF70.0
aF70.0
aF70.0
aF70.0
aF70.0
aF70.0
aF70.0
aF70.0
aF70.0
aa(lp3
F71.0
aF70.0
aF70.0
aF70.0
aF70.0
aF71.0
aF71.0
aF70.0
aF70.0
aF70.0
aF70.0
aF69.0
aF70.0
aF70.0
aF70.0
aF70.0
aF70.0
aF70.0
aF70.0
aF71.0
aF71.0
aF70.0
aF70.0
aF70.0
aF70.0
aF70.0
aF70.0
aF70.0
aF70.0
aF70.0
aF71.0
aF70.0
aF71.0
aF70.0
aF70.0
aF71.0
aF71.0
aF71.0
aF71.0
aF71.0
aF70.0
aF71.0
aF71.0
aF71.0
aF70.0
aF71.0
aF70.0
aF70.0
aF71.0
aa(lp4
F0.0
aF0.0
aF0.0
aF0.0
aF0.0
aF-5.346285403724293
aF-5.205157995223999
aF0.03799852036494902
aF-0.20515799522399902
aF-0.20515799522399902
aF-0.20515799522399902
aF5.140829394491344
aF-0.34554961751926877
aF-0.10235559940338135
aF-0.10235559940338135
aF-0.10235559940338135
aF-0.10235559940338135
aF-0.10235559940338135
aF-0.10235559940338135
aF-5.448644282936437
aF-5.307517170906067
aF-0.06376800629955318
aF-0.3075171709060669
aF-0.3075171709060669
aF-0.3075171709060669
aF-0.3075171709060669
aF-0.3075171709060669
aF-0.3075171709060669
aF-0.3075171709060669
aF-0.3075171709060669
aF-5.653808642483579
aF-0.1663641344874882
aF-5.756125336337817
aF-0.26956887286743225
aF-0.5128706693649292
aF-5.859148530528143
aF-5.71805465221405
aF-5.82063615322113
aF-5.923240661621094
aF-6.025825142860413
aF-0.7820785279846946
aF-6.372115302393308
aF-6.230989098548889
aF-6.333567142486572
aF-1.0898358248755007
aF-6.67987042436156
aF-1.1923757760014557
aF-1.4361391067504883
aF-6.782428610276872
aa(lp5
F1500.0
aF1500.0
aF1500.0
aF1500.0
aF1500.0
aF1494.6537145962757
aF1494.794842004776
aF1500.037998520365
aF1499.794842004776
aF1499.794842004776
aF1499.794842004776
aF1505.1408293944914
aF1499.6544503824807
aF1499.8976444005966
aF1499.8976444005966
aF1499.8976444005966
aF1499.8976444005966
aF1499.8976444005966
aF1499.8976444005966
aF1494.5513557170636
aF1494.692482829094
aF1499.9362319937004
aF1499.692482829094
aF1499.692482829094
aF1499.692482829094
aF1499.692482829094
aF1499.692482829094
aF1499.692482829094
aF1499.692482829094
aF1499.692482829094
aF1494.3461913575163
aF1499.8336358655124
aF1494.2438746636622
aF1499.7304311271325
aF1499.487129330635
aF1494.140851469472
aF1494.281945347786
aF1494.1793638467789
aF1494.076759338379
aF1493.9741748571396
aF1499.2179214720154
aF1493.6278846976068
aF1493.769010901451
aF1493.6664328575134
aF1498.9101641751245
aF1493.3201295756385
aF1498.8076242239986
aF1498.5638608932495
aF1493.2175713897232
aa.