(lp0
(lp1
I1
aI2
aI3
aI4
aI5
aI6
aI7
aI8
aI9
aI10
aI11
aI12
aI13
aI14
aI15
aI16
aI17
aI18
aI19
aI20
aI21
aI22
aI23
aI24
aI25
aI26
aI27
aI28
aI29
aI30
aI31
aI32
aI33
aI34
aI35
aI36
aI37
aI38
aI39
aI40
aI41
aI42
aI43
aI44
aI45
aI46
aI47
aI48
aI49
aa(lp2
F70.0
aF70.0
aF70.0
aF70.0
aF70.0
aF70.0
aF70.0
aF70.0
aF70.0
aF70.0
aF70.0
aF70.0
aF70.0
aF70.0
aF70.0
aF70.0
aF70.0
aF70.0
aF70.0
aF70.0
aF70.0
aF70.0
aF70.0
aF70.0
aF70.0
aF70.0
aF70.0
aF70.0
aF70.0
aF70.0
aF70.0
aF70.0
aF70.0
aF70.0
aF70.0
aF70.0
aF70.0
aF70.0
aF70.0
aF70.0
aF70.0
aF70.0
aF70.0
aF70.0
aF70.0
aF70.0
aF70.0
aF70.0
aF70.0
aa(lp3
F70.0
aF70.0
aF70.0
aF70.0
aF70.0
aF70.0
aF70.0
aF70.0
aF70.0
aF70.0
aF71.0
aF71.0
aF72.0
aF71.0
aF70.0
aF70.0
aF71.0
aF71.0
aF71.0
aF70.0
aF70.0
aF71.0
aF70.0
aF70.0
aF70.0
aF70.0
aF71.0
aF71.0
aF71.0
aF70.0
aF70.0
aF71.0
aF70.0
aF71.0
aF70.0
aF70.0
aF70.0
aF71.0
aF70.0
aF71.0
aF70.0
aF70.0
aF70.0
aF70.0
aF71.0
aF70.0
aF70.0
aF70.0
aF71.0
aa(lp4
F0.0
aF0.0
aF0.0
aF0.0
aF0.0
aF0.0
aF0.0
aF0.0
aF0.0
aF0.0
aF-5.34626064966417
aF-5.20520293712616
aF-10.65405642114117
aF-5.269435196026067
aF-0.2694295349001522
aF-0.5130739212036133
aF-5.859309831806733
aF-5.718329906463623
aF-5.820955395698547
aF-0.5773404443773485
aF-0.8209553956985474
aF-6.167179679210004
aF-0.6801076079090755
aF-0.9235848188400269
aF-0.9235848188400269
aF-0.9235848188400269
aF-6.269807628731445
aF-6.128836274147034
aF-6.231454253196716
aF-0.9878084515706698
aF-1.2314542531967163
aF-6.57768590560704
aF-1.0904288303784424
aF-6.680330604330364
aF-1.1929500839539724
aF-1.4366873502731323
aF-1.4366873502731323
aF-6.782591965995445
aF-1.2959354723009326
aF-6.8857725785884
aF-1.3984786852703308
aF-1.642181396484375
aF-1.642181396484375
aF-1.642181396484375
aF-6.988464668474152
aF-1.5010414020787068
aF-1.7447679042816162
aF-1.7447679042816162
aF-7.091042322564692
aa(lp5
F1500.0
aF1500.0
aF1500.0
aF1500.0
aF1500.0
aF1500.0
aF1500.0
aF1500.0
aF1500.0
aF1500.0
aF1494.6537393503359
aF1494.7947970628738
aF1489.3459435788589
aF1494.730564803974
aF1499.7305704650998
aF1499.4869260787964
aF1494.1406901681933
aF1494.2816700935364
aF1494.1790446043015
aF1499.4226595556227
aF1499.1790446043015
aF1493.83282032079
aF1499.3198923920909
aF1499.07641518116
aF1499.07641518116
aF1499.07641518116
aF1493.7301923712685
aF1493.871163725853
aF1493.7685457468033
aF1499.0121915484294
aF1498.7685457468033
aF1493.422314094393
aF1498.9095711696216
aF1493.3196693956697
aF1498.807049916046
aF1498.5633126497269
aF1498.5633126497269
aF1493.2174080340046
aF1498.704064527699
aF1493.1142274214117
aF1498.6015213147298
aF1498.3578186035156
aF1498.3578186035156
aF1498.3578186035156
aF1493.011535331526
aF1498.4989585979213
aF1498.2552320957184
aF1498.2552320957184
aF1492.9089576774354
aa.